; Function Attrs: nounwind uwtable
define internal noundef i32 @_widget_enter_leave(ptr noundef %0, ptr noundef readonly captures(none) %1) #0 {
  %3 = load i32, ptr %1, align 8, !tbaa !285
  %4 = icmp eq i32 %3, 10
  %5 = load ptr, ptr getelementptr inbounds nuw (i8, ptr @darktable, i64 128), align 8, !tbaa !67
  %6 = getelementptr inbounds nuw i8, ptr %5, i64 64
  %. = select i1 %4, ptr %0, ptr null
  store ptr %., ptr %6, align 8, !tbaa !256
  tail call void @gtk_widget_queue_draw(ptr noundef %0) #19
  ret i32 0
}